target datalayout = "e-m:e-p270:32:32-p271:32:32-p272:64:64-i64:64-i128:128-f80:128-n8:16:32:64-S128"
target triple = "x86_64-pc-linux-gnu"

@.str.689 = private unnamed_addr constant [8 x i8] c"Unknown\00", align 1

; Function Attrs: null_pointer_is_valid sspstrong uwtable
define internal i32 @add_nlogons(ptr noundef %0, i32 noundef %1, i32 noundef %2, ptr noundef %3, ptr noundef %4, i32 noundef %5, i32 noundef %6, ptr noundef %7) #0 {
  %9 = alloca ptr, align 8
  %10 = alloca i32, align 4
  %11 = alloca i32, align 4
  %12 = alloca ptr, align 8
  %13 = alloca ptr, align 8
  %14 = alloca i32, align 4
  %15 = alloca i32, align 4
  %16 = alloca ptr, align 8
  %17 = alloca i16, align 2
  store ptr %0, ptr %9, align 8
  store i32 %1, ptr %10, align 4
  store i32 %2, ptr %11, align 4
  store ptr %3, ptr %12, align 8
  store ptr %4, ptr %13, align 8
  store i32 %5, ptr %14, align 4
  store i32 %6, ptr %15, align 4
  store ptr %7, ptr %16, align 8
  call void @llvm.lifetime.start.p0(i64 2, ptr %17) #7
  %18 = load ptr, ptr %9, align 8
  %19 = load i32, ptr %10, align 4
  %20 = call zeroext i16 @tvb_get_letohs(ptr noundef %18, i32 noundef %19)
  store i16 %20, ptr %17, align 2
  %21 = load i16, ptr %17, align 2
  %22 = zext i16 %21 to i32
  %23 = icmp eq i32 %22, 65535
  br i1 %23, label %24, label %32

24:                                               ; preds = %8
  %25 = load ptr, ptr %13, align 8
  %26 = load i32, ptr %15, align 4
  %27 = load ptr, ptr %9, align 8
  %28 = load i32, ptr %10, align 4
  %29 = load i16, ptr %17, align 2
  %30 = zext i16 %29 to i32
  %31 = call ptr (ptr, i32, ptr, i32, i32, i32, ptr, ...) @proto_tree_add_uint_format_value(ptr noundef %25, i32 noundef %26, ptr noundef %27, i32 noundef %28, i32 noundef 2, i32 noundef %30, ptr noundef @.str.689)
  br label %40

32:                                               ; preds = %8
  %33 = load ptr, ptr %13, align 8
  %34 = load i32, ptr %15, align 4
  %35 = load ptr, ptr %9, align 8
  %36 = load i32, ptr %10, align 4
  %37 = load i16, ptr %17, align 2
  %38 = zext i16 %37 to i32
  %39 = call ptr @proto_tree_add_uint(ptr noundef %33, i32 noundef %34, ptr noundef %35, i32 noundef %36, i32 noundef 2, i32 noundef %38)
  br label %40

40:                                               ; preds = %32, %24
  %41 = load i32, ptr %10, align 4
  %42 = add i32 %41, 2
  store i32 %42, ptr %10, align 4
  %43 = load i32, ptr %10, align 4
  call void @llvm.lifetime.end.p0(i64 2, ptr %17) #7
  ret i32 %43
}