; Function Attrs: null_pointer_is_valid sspstrong uwtable
define internal noundef i32 @add_nlogons(ptr noundef %0, i32 noundef %1, i32 %2, ptr readnone captures(none) %3, ptr noundef %4, i32 %5, i32 noundef %6, ptr readnone captures(none) %7) #0 {
  %9 = tail call zeroext i16 @tvb_get_letohs(ptr noundef %0, i32 noundef %1)
  %10 = icmp eq i16 %9, -1
  br i1 %10, label %11, label %13

11:                                               ; preds = %8
  %12 = tail call ptr (ptr, i32, ptr, i32, i32, i32, ptr, ...) @proto_tree_add_uint_format_value(ptr noundef %4, i32 noundef %6, ptr noundef %0, i32 noundef %1, i32 noundef 2, i32 noundef 65535, ptr noundef nonnull @.str.689)
  br label %16

13:                                               ; preds = %8
  %14 = zext i16 %9 to i32
  %15 = tail call ptr @proto_tree_add_uint(ptr noundef %4, i32 noundef %6, ptr noundef %0, i32 noundef %1, i32 noundef 2, i32 noundef %14)
  br label %16

16:                                               ; preds = %13, %11
  %17 = add i32 %1, 2
  ret i32 %17
}